; Function Attrs: mustprogress nofree nounwind willreturn memory(write, argmem: readwrite) uwtable
define noundef double @_ZNK8QuantLib46ArithmeticAveragedOvernightIndexedCouponPricer8convAdj2Edd(ptr nocapture noundef nonnull readonly align 8 dereferenceable(40) %this, double noundef %ts, double noundef %te) local_unnamed_addr #14 align 2 {
entry:
  %vol_ = getelementptr inbounds nuw i8, ptr %this, i64 32
  %0 = load double, ptr %vol_, align 8, !tbaa !124
  %mul = fmul double %0, %0
  %mrs_ = getelementptr inbounds nuw i8, ptr %this, i64 24
  %1 = load double, ptr %mrs_, align 8, !tbaa !125
  %square = fmul double %1, %1
  %mul3 = fmul double %square, 2.000000e+00
  %div = fdiv double %mul, %mul3
  %sub = fsub double %te, %ts
  %fneg = fneg double %1
  %mul6 = fmul double %sub, %fneg
  %call7 = tail call double @exp(double noundef %mul6) #29, !tbaa !123
  %sub8 = fsub double 1.000000e+00, %call7
  %square5 = fmul double %sub8, %sub8
  %div11 = fdiv double %square5, %1
  %sub12 = fsub double %sub, %div11
  %mul14 = fmul double %1, -2.000000e+00
  %mul16 = fmul double %sub, %mul14
  %call17 = tail call double @exp(double noundef %mul16) #29, !tbaa !123
  %sub18 = fsub double 1.000000e+00, %call17
  %mul20 = fmul double %1, 2.000000e+00
  %div21 = fdiv double %sub18, %mul20
  %sub22 = fsub double %sub12, %div21
  %mul23 = fmul double %div, %sub22
  ret double %mul23
}